target datalayout = "e-m:e-p270:32:32-p271:32:32-p272:64:64-i64:64-i128:128-f80:128-n8:16:32:64-S128"
target triple = "x86_64-pc-linux-gnu"

; Function Attrs: nounwind uwtable
define internal i32 @wolfSSL_read_internal(ptr noundef %0, ptr noundef %1, i64 noundef %2, i32 noundef %3) #0 {
  %5 = alloca i32, align 4
  %6 = alloca ptr, align 8
  %7 = alloca ptr, align 8
  %8 = alloca i64, align 8
  %9 = alloca i32, align 4
  %10 = alloca i32, align 4
  %11 = alloca i32, align 4
  store ptr %0, ptr %6, align 8, !tbaa !61
  store ptr %1, ptr %7, align 8, !tbaa !3
  store i64 %2, ptr %8, align 8, !tbaa !22
  store i32 %3, ptr %9, align 4, !tbaa !7
  call void @llvm.lifetime.start.p0(i64 4, ptr %10) #9
  br label %12

12:                                               ; preds = %4
  br label %13

13:                                               ; preds = %12
  br label %14

14:                                               ; preds = %13
  %15 = load ptr, ptr %6, align 8, !tbaa !61
  %16 = icmp eq ptr %15, null
  br i1 %16, label %20, label %17

17:                                               ; preds = %14
  %18 = load ptr, ptr %7, align 8, !tbaa !3
  %19 = icmp eq ptr %18, null
  br i1 %19, label %20, label %21

20:                                               ; preds = %17, %14
  store i32 -173, ptr %5, align 4
  store i32 1, ptr %11, align 4
  br label %36

21:                                               ; preds = %17
  %22 = call ptr @__errno_location() #11
  store i32 0, ptr %22, align 4, !tbaa !7
  %23 = load ptr, ptr %6, align 8, !tbaa !61
  %24 = load ptr, ptr %7, align 8, !tbaa !3
  %25 = load i64, ptr %8, align 8, !tbaa !22
  %26 = load i32, ptr %9, align 4, !tbaa !7
  %27 = call i32 @ReceiveData(ptr noundef %23, ptr noundef %24, i64 noundef %25, i32 noundef %26)
  store i32 %27, ptr %10, align 4, !tbaa !7
  br label %28

28:                                               ; preds = %21
  br label %29

29:                                               ; preds = %28
  br label %30

30:                                               ; preds = %29
  %31 = load i32, ptr %10, align 4, !tbaa !7
  %32 = icmp slt i32 %31, 0
  br i1 %32, label %33, label %34

33:                                               ; preds = %30
  store i32 -1, ptr %5, align 4
  store i32 1, ptr %11, align 4
  br label %36

34:                                               ; preds = %30
  %35 = load i32, ptr %10, align 4, !tbaa !7
  store i32 %35, ptr %5, align 4
  store i32 1, ptr %11, align 4
  br label %36

36:                                               ; preds = %34, %33, %20
  call void @llvm.lifetime.end.p0(i64 4, ptr %10) #9
  %37 = load i32, ptr %5, align 4
  ret i32 %37
}

; Function Attrs: nounwind uwtable
define i32 @wolfSSL_read(ptr noundef %0, ptr noundef %1, i32 noundef %2) #0 {
  %4 = alloca i32, align 4
  %5 = alloca ptr, align 8
  %6 = alloca ptr, align 8
  %7 = alloca i32, align 4
  store ptr %0, ptr %5, align 8, !tbaa !61
  store ptr %1, ptr %6, align 8, !tbaa !3
  store i32 %2, ptr %7, align 4, !tbaa !7
  br label %8

8:                                                ; preds = %3
  br label %9

9:                                                ; preds = %8
  %10 = load i32, ptr %7, align 4, !tbaa !7
  %11 = icmp slt i32 %10, 0
  br i1 %11, label %12, label %13

12:                                               ; preds = %9
  store i32 -173, ptr %4, align 4
  br label %19

13:                                               ; preds = %9
  %14 = load ptr, ptr %5, align 8, !tbaa !61
  %15 = load ptr, ptr %6, align 8, !tbaa !3
  %16 = load i32, ptr %7, align 4, !tbaa !7
  %17 = sext i32 %16 to i64
  %18 = call i32 @wolfSSL_read_internal(ptr noundef %14, ptr noundef %15, i64 noundef %17, i32 noundef 0)
  store i32 %18, ptr %4, align 4
  br label %19

19:                                               ; preds = %13, %12
  %20 = load i32, ptr %4, align 4
  ret i32 %20
}