; Function Attrs: nounwind uwtable
define range(i32 -173, -2147483648) i32 @wolfSSL_read(ptr noundef %0, ptr noundef %1, i32 noundef %2) local_unnamed_addr #0 {
  %4 = icmp slt i32 %2, 0
  br i1 %4, label %wolfSSL_read_internal.exit, label %5

5:                                                ; preds = %3
  %6 = icmp eq ptr %0, null
  %7 = icmp eq ptr %1, null
  %or.cond.i = or i1 %6, %7
  br i1 %or.cond.i, label %wolfSSL_read_internal.exit, label %8

8:                                                ; preds = %5
  %9 = zext nneg i32 %2 to i64
  %10 = tail call ptr @__errno_location() #24
  store i32 0, ptr %10, align 4, !tbaa !3
  %11 = tail call i32 @ReceiveData(ptr noundef nonnull %0, ptr noundef nonnull %1, i64 noundef %9, i32 noundef 0) #22
  %..i = tail call i32 @llvm.smax.i32(i32 %11, i32 -1)
  br label %wolfSSL_read_internal.exit

wolfSSL_read_internal.exit:                       ; preds = %8, %5, %3
  %.0 = phi i32 [ -173, %3 ], [ -173, %5 ], [ %..i, %8 ]
  ret i32 %.0
}